target datalayout = "e-m:e-p270:32:32-p271:32:32-p272:64:64-i64:64-i128:128-f80:128-n8:16:32:64-S128"
target triple = "x86_64-pc-linux-gnu"

%struct._lv_arc_t = type { %struct._lv_obj_t, i32, float, float, float, float, i32, i32, i32, i8, i32, i32, float, i16 }
%struct._lv_obj_t = type { ptr, ptr, ptr, ptr, ptr, %struct.lv_area_t, i32, i16, i16 }
%struct.lv_area_t = type { i32, i32, i32, i32 }
%struct.lv_point_t = type { i32, i32 }
%union.lv_style_value_t = type { ptr }

; Function Attrs: inlinehint nounwind uwtable
define internal i32 @lv_obj_get_style_pad_bottom(ptr noundef %0, i32 noundef %1) #3 {
  %3 = alloca ptr, align 8
  %4 = alloca i32, align 4
  %5 = alloca %union.lv_style_value_t, align 8
  store ptr %0, ptr %3, align 8, !tbaa !8
  store i32 %1, ptr %4, align 4, !tbaa !33
  call void @llvm.lifetime.start.p0(i64 8, ptr %5) #5
  %6 = load ptr, ptr %3, align 8, !tbaa !8
  %7 = load i32, ptr %4, align 4, !tbaa !33
  %8 = call ptr @lv_obj_get_style_prop(ptr noundef %6, i32 noundef %7, i8 noundef zeroext 17)
  %9 = getelementptr inbounds nuw %union.lv_style_value_t, ptr %5, i32 0, i32 0
  store ptr %8, ptr %9, align 8
  %10 = load i32, ptr %5, align 8, !tbaa !71
  call void @llvm.lifetime.end.p0(i64 8, ptr %5) #5
  ret i32 %10
}

; Function Attrs: inlinehint nounwind uwtable
define internal i32 @lv_obj_get_style_pad_top(ptr noundef %0, i32 noundef %1) #3 {
  %3 = alloca ptr, align 8
  %4 = alloca i32, align 4
  %5 = alloca %union.lv_style_value_t, align 8
  store ptr %0, ptr %3, align 8, !tbaa !8
  store i32 %1, ptr %4, align 4, !tbaa !33
  call void @llvm.lifetime.start.p0(i64 8, ptr %5) #5
  %6 = load ptr, ptr %3, align 8, !tbaa !8
  %7 = load i32, ptr %4, align 4, !tbaa !33
  %8 = call ptr @lv_obj_get_style_prop(ptr noundef %6, i32 noundef %7, i8 noundef zeroext 16)
  %9 = getelementptr inbounds nuw %union.lv_style_value_t, ptr %5, i32 0, i32 0
  store ptr %8, ptr %9, align 8
  %10 = load i32, ptr %5, align 8, !tbaa !71
  call void @llvm.lifetime.end.p0(i64 8, ptr %5) #5
  ret i32 %10
}

; Function Attrs: inlinehint nounwind uwtable
define internal i32 @lv_obj_get_style_pad_right(ptr noundef %0, i32 noundef %1) #3 {
  %3 = alloca ptr, align 8
  %4 = alloca i32, align 4
  %5 = alloca %union.lv_style_value_t, align 8
  store ptr %0, ptr %3, align 8, !tbaa !8
  store i32 %1, ptr %4, align 4, !tbaa !33
  call void @llvm.lifetime.start.p0(i64 8, ptr %5) #5
  %6 = load ptr, ptr %3, align 8, !tbaa !8
  %7 = load i32, ptr %4, align 4, !tbaa !33
  %8 = call ptr @lv_obj_get_style_prop(ptr noundef %6, i32 noundef %7, i8 noundef zeroext 19)
  %9 = getelementptr inbounds nuw %union.lv_style_value_t, ptr %5, i32 0, i32 0
  store ptr %8, ptr %9, align 8
  %10 = load i32, ptr %5, align 8, !tbaa !71
  call void @llvm.lifetime.end.p0(i64 8, ptr %5) #5
  ret i32 %10
}

; Function Attrs: inlinehint nounwind uwtable
define internal i32 @lv_obj_get_style_pad_left(ptr noundef %0, i32 noundef %1) #3 {
  %3 = alloca ptr, align 8
  %4 = alloca i32, align 4
  %5 = alloca %union.lv_style_value_t, align 8
  store ptr %0, ptr %3, align 8, !tbaa !8
  store i32 %1, ptr %4, align 4, !tbaa !33
  call void @llvm.lifetime.start.p0(i64 8, ptr %5) #5
  %6 = load ptr, ptr %3, align 8, !tbaa !8
  %7 = load i32, ptr %4, align 4, !tbaa !33
  %8 = call ptr @lv_obj_get_style_prop(ptr noundef %6, i32 noundef %7, i8 noundef zeroext 18)
  %9 = getelementptr inbounds nuw %union.lv_style_value_t, ptr %5, i32 0, i32 0
  store ptr %8, ptr %9, align 8
  %10 = load i32, ptr %5, align 8, !tbaa !71
  call void @llvm.lifetime.end.p0(i64 8, ptr %5) #5
  ret i32 %10
}

; Function Attrs: nounwind uwtable
define i32 @lv_arc_get_knob_offset(ptr noundef %0) #0 {
  %2 = alloca ptr, align 8
  store ptr %0, ptr %2, align 8, !tbaa !8
  br label %3

3:                                                ; preds = %1
  %4 = load ptr, ptr %2, align 8, !tbaa !8
  %5 = icmp ne ptr %4, null
  br i1 %5, label %10, label %6

6:                                                ; preds = %3
  br label %7

7:                                                ; preds = %6
  br label %8

8:                                                ; preds = %7
  br label %9

9:                                                ; preds = %8, %9
  br label %9

10:                                               ; preds = %3
  br label %11

11:                                               ; preds = %10
  %12 = load ptr, ptr %2, align 8, !tbaa !8
  %13 = getelementptr inbounds nuw %struct._lv_arc_t, ptr %12, i32 0, i32 13
  %14 = load i16, ptr %13, align 8, !tbaa !67
  %15 = sext i16 %14 to i32
  ret i32 %15
}

; Function Attrs: nounwind uwtable
define internal float @get_angle(ptr noundef %0) #0 {
  %2 = alloca ptr, align 8
  %3 = alloca ptr, align 8
  %4 = alloca float, align 4
  %5 = alloca float, align 4
  %6 = alloca float, align 4
  %7 = alloca float, align 4
  store ptr %0, ptr %2, align 8, !tbaa !8
  call void @llvm.lifetime.start.p0(i64 8, ptr %3) #5
  %8 = load ptr, ptr %2, align 8, !tbaa !8
  store ptr %8, ptr %3, align 8, !tbaa !10
  call void @llvm.lifetime.start.p0(i64 4, ptr %4) #5
  %9 = load ptr, ptr %3, align 8, !tbaa !10
  %10 = getelementptr inbounds nuw %struct._lv_arc_t, ptr %9, i32 0, i32 1
  %11 = load i32, ptr %10, align 8, !tbaa !12
  %12 = sitofp i32 %11 to float
  store float %12, ptr %4, align 4, !tbaa !39
  %13 = load ptr, ptr %3, align 8, !tbaa !10
  %14 = getelementptr inbounds nuw %struct._lv_arc_t, ptr %13, i32 0, i32 9
  %15 = load i8, ptr %14, align 8
  %16 = lshr i8 %15, 1
  %17 = and i8 %16, 3
  %18 = zext i8 %17 to i32
  %19 = icmp eq i32 %18, 0
  br i1 %19, label %20, label %26

20:                                               ; preds = %1
  %21 = load ptr, ptr %3, align 8, !tbaa !10
  %22 = getelementptr inbounds nuw %struct._lv_arc_t, ptr %21, i32 0, i32 3
  %23 = load float, ptr %22, align 8, !tbaa !24
  %24 = load float, ptr %4, align 4, !tbaa !39
  %25 = fadd float %24, %23
  store float %25, ptr %4, align 4, !tbaa !39
  br label %118

26:                                               ; preds = %1
  %27 = load ptr, ptr %3, align 8, !tbaa !10
  %28 = getelementptr inbounds nuw %struct._lv_arc_t, ptr %27, i32 0, i32 9
  %29 = load i8, ptr %28, align 8
  %30 = lshr i8 %29, 1
  %31 = and i8 %30, 3
  %32 = zext i8 %31 to i32
  %33 = icmp eq i32 %32, 2
  br i1 %33, label %34, label %40

34:                                               ; preds = %26
  %35 = load ptr, ptr %3, align 8, !tbaa !10
  %36 = getelementptr inbounds nuw %struct._lv_arc_t, ptr %35, i32 0, i32 2
  %37 = load float, ptr %36, align 4, !tbaa !23
  %38 = load float, ptr %4, align 4, !tbaa !39
  %39 = fadd float %38, %37
  store float %39, ptr %4, align 4, !tbaa !39
  br label %117

40:                                               ; preds = %26
  %41 = load ptr, ptr %3, align 8, !tbaa !10
  %42 = getelementptr inbounds nuw %struct._lv_arc_t, ptr %41, i32 0, i32 9
  %43 = load i8, ptr %42, align 8
  %44 = lshr i8 %43, 1
  %45 = and i8 %44, 3
  %46 = zext i8 %45 to i32
  %47 = icmp eq i32 %46, 1
  br i1 %47, label %48, label %116

48:                                               ; preds = %40
  call void @llvm.lifetime.start.p0(i64 4, ptr %5) #5
  %49 = load ptr, ptr %3, align 8, !tbaa !10
  %50 = getelementptr inbounds nuw %struct._lv_arc_t, ptr %49, i32 0, i32 5
  %51 = load float, ptr %50, align 8, !tbaa !22
  store float %51, ptr %5, align 4, !tbaa !39
  %52 = load ptr, ptr %3, align 8, !tbaa !10
  %53 = getelementptr inbounds nuw %struct._lv_arc_t, ptr %52, i32 0, i32 5
  %54 = load float, ptr %53, align 8, !tbaa !22
  %55 = load ptr, ptr %3, align 8, !tbaa !10
  %56 = getelementptr inbounds nuw %struct._lv_arc_t, ptr %55, i32 0, i32 4
  %57 = load float, ptr %56, align 4, !tbaa !21
  %58 = fcmp olt float %54, %57
  br i1 %58, label %59, label %64

59:                                               ; preds = %48
  %60 = load ptr, ptr %3, align 8, !tbaa !10
  %61 = getelementptr inbounds nuw %struct._lv_arc_t, ptr %60, i32 0, i32 5
  %62 = load float, ptr %61, align 8, !tbaa !22
  %63 = fadd float %62, 3.600000e+02
  store float %63, ptr %5, align 4, !tbaa !39
  br label %64

64:                                               ; preds = %59, %48
  call void @llvm.lifetime.start.p0(i64 4, ptr %6) #5
  %65 = load ptr, ptr %3, align 8, !tbaa !10
  %66 = getelementptr inbounds nuw %struct._lv_arc_t, ptr %65, i32 0, i32 3
  %67 = load float, ptr %66, align 8, !tbaa !24
  store float %67, ptr %6, align 4, !tbaa !39
  %68 = load ptr, ptr %3, align 8, !tbaa !10
  %69 = getelementptr inbounds nuw %struct._lv_arc_t, ptr %68, i32 0, i32 3
  %70 = load float, ptr %69, align 8, !tbaa !24
  %71 = load ptr, ptr %3, align 8, !tbaa !10
  %72 = getelementptr inbounds nuw %struct._lv_arc_t, ptr %71, i32 0, i32 2
  %73 = load float, ptr %72, align 4, !tbaa !23
  %74 = fcmp olt float %70, %73
  br i1 %74, label %75, label %80

75:                                               ; preds = %64
  %76 = load ptr, ptr %3, align 8, !tbaa !10
  %77 = getelementptr inbounds nuw %struct._lv_arc_t, ptr %76, i32 0, i32 3
  %78 = load float, ptr %77, align 8, !tbaa !24
  %79 = fadd float %78, 3.600000e+02
  store float %79, ptr %6, align 4, !tbaa !39
  br label %80

80:                                               ; preds = %75, %64
  call void @llvm.lifetime.start.p0(i64 4, ptr %7) #5
  %81 = load ptr, ptr %3, align 8, !tbaa !10
  %82 = getelementptr inbounds nuw %struct._lv_arc_t, ptr %81, i32 0, i32 4
  %83 = load float, ptr %82, align 4, !tbaa !21
  %84 = load float, ptr %5, align 4, !tbaa !39
  %85 = fadd float %83, %84
  %86 = fptosi float %85 to i32
  %87 = sdiv i32 %86, 2
  %88 = sitofp i32 %87 to float
  store float %88, ptr %7, align 4, !tbaa !39
  %89 = load ptr, ptr %3, align 8, !tbaa !10
  %90 = getelementptr inbounds nuw %struct._lv_arc_t, ptr %89, i32 0, i32 2
  %91 = load float, ptr %90, align 4, !tbaa !23
  %92 = load float, ptr %7, align 4, !tbaa !39
  %93 = fcmp olt float %91, %92
  br i1 %93, label %94, label %100

94:                                               ; preds = %80
  %95 = load ptr, ptr %3, align 8, !tbaa !10
  %96 = getelementptr inbounds nuw %struct._lv_arc_t, ptr %95, i32 0, i32 2
  %97 = load float, ptr %96, align 4, !tbaa !23
  %98 = load float, ptr %4, align 4, !tbaa !39
  %99 = fadd float %98, %97
  store float %99, ptr %4, align 4, !tbaa !39
  br label %115

100:                                              ; preds = %80
  %101 = load float, ptr %6, align 4, !tbaa !39
  %102 = load float, ptr %7, align 4, !tbaa !39
  %103 = fcmp ogt float %101, %102
  br i1 %103, label %104, label %110

104:                                              ; preds = %100
  %105 = load ptr, ptr %3, align 8, !tbaa !10
  %106 = getelementptr inbounds nuw %struct._lv_arc_t, ptr %105, i32 0, i32 3
  %107 = load float, ptr %106, align 8, !tbaa !24
  %108 = load float, ptr %4, align 4, !tbaa !39
  %109 = fadd float %108, %107
  store float %109, ptr %4, align 4, !tbaa !39
  br label %114

110:                                              ; preds = %100
  %111 = load float, ptr %7, align 4, !tbaa !39
  %112 = load float, ptr %4, align 4, !tbaa !39
  %113 = fadd float %112, %111
  store float %113, ptr %4, align 4, !tbaa !39
  br label %114

114:                                              ; preds = %110, %104
  br label %115

115:                                              ; preds = %114, %94
  call void @llvm.lifetime.end.p0(i64 4, ptr %7) #5
  call void @llvm.lifetime.end.p0(i64 4, ptr %6) #5
  call void @llvm.lifetime.end.p0(i64 4, ptr %5) #5
  br label %116

116:                                              ; preds = %115, %40
  br label %117

117:                                              ; preds = %116, %34
  br label %118

118:                                              ; preds = %117, %20
  %119 = load float, ptr %4, align 4, !tbaa !39
  call void @llvm.lifetime.end.p0(i64 4, ptr %4) #5
  call void @llvm.lifetime.end.p0(i64 8, ptr %3) #5
  ret float %119
}

; Function Attrs: inlinehint nounwind uwtable
define internal i32 @lv_obj_get_style_arc_width(ptr noundef %0, i32 noundef %1) #3 {
  %3 = alloca ptr, align 8
  %4 = alloca i32, align 4
  %5 = alloca %union.lv_style_value_t, align 8
  store ptr %0, ptr %3, align 8, !tbaa !8
  store i32 %1, ptr %4, align 4, !tbaa !33
  call void @llvm.lifetime.start.p0(i64 8, ptr %5) #5
  %6 = load ptr, ptr %3, align 8, !tbaa !8
  %7 = load i32, ptr %4, align 4, !tbaa !33
  %8 = call ptr @lv_obj_get_style_prop(ptr noundef %6, i32 noundef %7, i8 noundef zeroext 80)
  %9 = getelementptr inbounds nuw %union.lv_style_value_t, ptr %5, i32 0, i32 0
  store ptr %8, ptr %9, align 8
  %10 = load i32, ptr %5, align 8, !tbaa !71
  call void @llvm.lifetime.end.p0(i64 8, ptr %5) #5
  ret i32 %10
}

; Function Attrs: nounwind uwtable
define internal void @get_knob_area(ptr noundef %0, ptr noundef %1, i32 noundef %2, ptr noundef %3) #0 {
  %5 = alloca ptr, align 8
  %6 = alloca ptr, align 8
  %7 = alloca i32, align 4
  %8 = alloca ptr, align 8
  %9 = alloca i32, align 4
  %10 = alloca i32, align 4
  %11 = alloca i32, align 4
  %12 = alloca i32, align 4
  %13 = alloca i32, align 4
  %14 = alloca i32, align 4
  %15 = alloca i32, align 4
  %16 = alloca i32, align 4
  %17 = alloca i32, align 4
  %18 = alloca i32, align 4
  store ptr %0, ptr %5, align 8, !tbaa !8
  store ptr %1, ptr %6, align 8, !tbaa !68
  store i32 %2, ptr %7, align 4, !tbaa !33
  store ptr %3, ptr %8, align 8, !tbaa !68
  call void @llvm.lifetime.start.p0(i64 4, ptr %9) #5
  %19 = load ptr, ptr %5, align 8, !tbaa !8
  %20 = call i32 @lv_obj_get_style_arc_width(ptr noundef %19, i32 noundef 131072)
  store i32 %20, ptr %9, align 4, !tbaa !33
  call void @llvm.lifetime.start.p0(i64 4, ptr %10) #5
  %21 = load i32, ptr %9, align 4, !tbaa !33
  %22 = sdiv i32 %21, 2
  store i32 %22, ptr %10, align 4, !tbaa !33
  %23 = load i32, ptr %10, align 4, !tbaa !33
  %24 = load i32, ptr %7, align 4, !tbaa !33
  %25 = sub nsw i32 %24, %23
  store i32 %25, ptr %7, align 4, !tbaa !33
  call void @llvm.lifetime.start.p0(i64 4, ptr %11) #5
  %26 = load ptr, ptr %5, align 8, !tbaa !8
  %27 = call float @get_angle(ptr noundef %26)
  %28 = fptosi float %27 to i32
  store i32 %28, ptr %11, align 4, !tbaa !33
  call void @llvm.lifetime.start.p0(i64 4, ptr %12) #5
  %29 = load ptr, ptr %5, align 8, !tbaa !8
  %30 = call i32 @lv_arc_get_knob_offset(ptr noundef %29)
  store i32 %30, ptr %12, align 4, !tbaa !33
  call void @llvm.lifetime.start.p0(i64 4, ptr %13) #5
  %31 = load i32, ptr %7, align 4, !tbaa !33
  %32 = load i32, ptr %12, align 4, !tbaa !33
  %33 = load i32, ptr %11, align 4, !tbaa !33
  %34 = add nsw i32 %32, %33
  %35 = add nsw i32 %34, 90
  %36 = trunc i32 %35 to i16
  %37 = call i32 @lv_trigo_sin(i16 noundef signext %36)
  %38 = mul nsw i32 %31, %37
  %39 = ashr i32 %38, 15
  store i32 %39, ptr %13, align 4, !tbaa !33
  call void @llvm.lifetime.start.p0(i64 4, ptr %14) #5
  %40 = load i32, ptr %7, align 4, !tbaa !33
  %41 = load i32, ptr %12, align 4, !tbaa !33
  %42 = load i32, ptr %11, align 4, !tbaa !33
  %43 = add nsw i32 %41, %42
  %44 = trunc i32 %43 to i16
  %45 = call i32 @lv_trigo_sin(i16 noundef signext %44)
  %46 = mul nsw i32 %40, %45
  %47 = ashr i32 %46, 15
  store i32 %47, ptr %14, align 4, !tbaa !33
  call void @llvm.lifetime.start.p0(i64 4, ptr %15) #5
  %48 = load ptr, ptr %5, align 8, !tbaa !8
  %49 = call i32 @lv_obj_get_style_pad_left(ptr noundef %48, i32 noundef 196608)
  store i32 %49, ptr %15, align 4, !tbaa !33
  call void @llvm.lifetime.start.p0(i64 4, ptr %16) #5
  %50 = load ptr, ptr %5, align 8, !tbaa !8
  %51 = call i32 @lv_obj_get_style_pad_right(ptr noundef %50, i32 noundef 196608)
  store i32 %51, ptr %16, align 4, !tbaa !33
  call void @llvm.lifetime.start.p0(i64 4, ptr %17) #5
  %52 = load ptr, ptr %5, align 8, !tbaa !8
  %53 = call i32 @lv_obj_get_style_pad_top(ptr noundef %52, i32 noundef 196608)
  store i32 %53, ptr %17, align 4, !tbaa !33
  call void @llvm.lifetime.start.p0(i64 4, ptr %18) #5
  %54 = load ptr, ptr %5, align 8, !tbaa !8
  %55 = call i32 @lv_obj_get_style_pad_bottom(ptr noundef %54, i32 noundef 196608)
  store i32 %55, ptr %18, align 4, !tbaa !33
  %56 = load ptr, ptr %6, align 8, !tbaa !68
  %57 = getelementptr inbounds nuw %struct.lv_point_t, ptr %56, i32 0, i32 0
  %58 = load i32, ptr %57, align 4, !tbaa !36
  %59 = load i32, ptr %13, align 4, !tbaa !33
  %60 = add nsw i32 %58, %59
  %61 = load i32, ptr %15, align 4, !tbaa !33
  %62 = sub nsw i32 %60, %61
  %63 = load i32, ptr %10, align 4, !tbaa !33
  %64 = sub nsw i32 %62, %63
  %65 = load ptr, ptr %8, align 8, !tbaa !68
  %66 = getelementptr inbounds nuw %struct.lv_area_t, ptr %65, i32 0, i32 0
  store i32 %64, ptr %66, align 4, !tbaa !88
  %67 = load ptr, ptr %6, align 8, !tbaa !68
  %68 = getelementptr inbounds nuw %struct.lv_point_t, ptr %67, i32 0, i32 0
  %69 = load i32, ptr %68, align 4, !tbaa !36
  %70 = load i32, ptr %13, align 4, !tbaa !33
  %71 = add nsw i32 %69, %70
  %72 = load i32, ptr %16, align 4, !tbaa !33
  %73 = add nsw i32 %71, %72
  %74 = load i32, ptr %10, align 4, !tbaa !33
  %75 = add nsw i32 %73, %74
  %76 = load ptr, ptr %8, align 8, !tbaa !68
  %77 = getelementptr inbounds nuw %struct.lv_area_t, ptr %76, i32 0, i32 2
  store i32 %75, ptr %77, align 4, !tbaa !89
  %78 = load ptr, ptr %6, align 8, !tbaa !68
  %79 = getelementptr inbounds nuw %struct.lv_point_t, ptr %78, i32 0, i32 1
  %80 = load i32, ptr %79, align 4, !tbaa !38
  %81 = load i32, ptr %14, align 4, !tbaa !33
  %82 = add nsw i32 %80, %81
  %83 = load i32, ptr %17, align 4, !tbaa !33
  %84 = sub nsw i32 %82, %83
  %85 = load i32, ptr %10, align 4, !tbaa !33
  %86 = sub nsw i32 %84, %85
  %87 = load ptr, ptr %8, align 8, !tbaa !68
  %88 = getelementptr inbounds nuw %struct.lv_area_t, ptr %87, i32 0, i32 1
  store i32 %86, ptr %88, align 4, !tbaa !90
  %89 = load ptr, ptr %6, align 8, !tbaa !68
  %90 = getelementptr inbounds nuw %struct.lv_point_t, ptr %89, i32 0, i32 1
  %91 = load i32, ptr %90, align 4, !tbaa !38
  %92 = load i32, ptr %14, align 4, !tbaa !33
  %93 = add nsw i32 %91, %92
  %94 = load i32, ptr %18, align 4, !tbaa !33
  %95 = add nsw i32 %93, %94
  %96 = load i32, ptr %10, align 4, !tbaa !33
  %97 = add nsw i32 %95, %96
  %98 = load ptr, ptr %8, align 8, !tbaa !68
  %99 = getelementptr inbounds nuw %struct.lv_area_t, ptr %98, i32 0, i32 3
  store i32 %97, ptr %99, align 4, !tbaa !91
  call void @llvm.lifetime.end.p0(i64 4, ptr %18) #5
  call void @llvm.lifetime.end.p0(i64 4, ptr %17) #5
  call void @llvm.lifetime.end.p0(i64 4, ptr %16) #5
  call void @llvm.lifetime.end.p0(i64 4, ptr %15) #5
  call void @llvm.lifetime.end.p0(i64 4, ptr %14) #5
  call void @llvm.lifetime.end.p0(i64 4, ptr %13) #5
  call void @llvm.lifetime.end.p0(i64 4, ptr %12) #5
  call void @llvm.lifetime.end.p0(i64 4, ptr %11) #5
  call void @llvm.lifetime.end.p0(i64 4, ptr %10) #5
  call void @llvm.lifetime.end.p0(i64 4, ptr %9) #5
  ret void
}