; Function Attrs: nounwind uwtable
define internal fastcc void @get_knob_area(ptr noundef %0, i32 %.0.val, i32 %.4.val, i32 noundef %1, ptr noundef nonnull writeonly captures(none) %2) unnamed_addr #0 {
  %4 = tail call ptr @lv_obj_get_style_prop(ptr noundef %0, i32 noundef 131072, i8 noundef zeroext 80) #7
  %5 = getelementptr inbounds nuw i8, ptr %0, i64 64
  %6 = load i32, ptr %5, align 8, !tbaa !3
  %7 = sitofp i32 %6 to float
  %8 = getelementptr inbounds nuw i8, ptr %0, i64 96
  %9 = load i8, ptr %8, align 8
  %10 = lshr i8 %9, 1
  %11 = and i8 %10, 3
  switch i8 %11, label %default.unreachable [
    i8 0, label %12
    i8 2, label %16
    i8 1, label %20
    i8 3, label %lv_arc_get_knob_offset.exit
  ]

12:                                               ; preds = %3
  %13 = getelementptr inbounds nuw i8, ptr %0, i64 72
  %14 = load float, ptr %13, align 8, !tbaa !20
  %15 = fadd float %14, %7
  br label %lv_arc_get_knob_offset.exit

16:                                               ; preds = %3
  %17 = getelementptr inbounds nuw i8, ptr %0, i64 68
  %18 = load float, ptr %17, align 4, !tbaa !19
  %19 = fadd float %18, %7
  br label %lv_arc_get_knob_offset.exit

20:                                               ; preds = %3
  %21 = getelementptr inbounds nuw i8, ptr %0, i64 80
  %22 = load float, ptr %21, align 8, !tbaa !18
  %23 = getelementptr inbounds nuw i8, ptr %0, i64 76
  %24 = load float, ptr %23, align 4, !tbaa !17
  %25 = fcmp olt float %22, %24
  %26 = fadd float %22, 3.600000e+02
  %.031.i = select i1 %25, float %26, float %22
  %27 = getelementptr inbounds nuw i8, ptr %0, i64 72
  %28 = load float, ptr %27, align 8, !tbaa !20
  %29 = getelementptr inbounds nuw i8, ptr %0, i64 68
  %30 = load float, ptr %29, align 4, !tbaa !19
  %31 = fadd float %24, %.031.i
  %32 = fptosi float %31 to i32
  %33 = sdiv i32 %32, 2
  %34 = sitofp i32 %33 to float
  %35 = fcmp olt float %30, %34
  br i1 %35, label %36, label %38

36:                                               ; preds = %20
  %37 = fadd float %30, %7
  br label %lv_arc_get_knob_offset.exit

38:                                               ; preds = %20
  %39 = fcmp olt float %28, %30
  %40 = fadd float %28, 3.600000e+02
  %.030.i = select i1 %39, float %40, float %28
  %41 = fcmp ogt float %.030.i, %34
  br i1 %41, label %42, label %44

42:                                               ; preds = %38
  %43 = fadd float %28, %7
  br label %lv_arc_get_knob_offset.exit

44:                                               ; preds = %38
  %45 = fadd float %7, %34
  br label %lv_arc_get_knob_offset.exit

default.unreachable:                              ; preds = %3
  unreachable

lv_arc_get_knob_offset.exit:                      ; preds = %44, %42, %36, %16, %12, %3
  %.0.i = phi float [ %15, %12 ], [ %19, %16 ], [ %7, %3 ], [ %37, %36 ], [ %43, %42 ], [ %45, %44 ]
  %46 = ptrtoint ptr %4 to i64
  %.sroa.0.0.extract.trunc.i = trunc i64 %46 to i32
  %47 = sdiv i32 %.sroa.0.0.extract.trunc.i, 2
  %48 = sub nsw i32 %1, %47
  %49 = fptosi float %.0.i to i32
  %50 = getelementptr inbounds nuw i8, ptr %0, i64 112
  %51 = load i16, ptr %50, align 8, !tbaa !60
  %52 = trunc i32 %49 to i16
  %53 = add i16 %51, %52
  %54 = add i16 %53, 90
  %55 = tail call i32 @lv_trigo_sin(i16 noundef signext %54) #7
  %56 = mul nsw i32 %55, %48
  %57 = ashr i32 %56, 15
  %58 = tail call i32 @lv_trigo_sin(i16 noundef signext %53) #7
  %59 = mul nsw i32 %58, %48
  %60 = ashr i32 %59, 15
  %61 = tail call ptr @lv_obj_get_style_prop(ptr noundef nonnull %0, i32 noundef 196608, i8 noundef zeroext 18) #7
  %62 = ptrtoint ptr %61 to i64
  %.sroa.0.0.extract.trunc.i35 = trunc i64 %62 to i32
  %63 = tail call ptr @lv_obj_get_style_prop(ptr noundef nonnull %0, i32 noundef 196608, i8 noundef zeroext 19) #7
  %64 = ptrtoint ptr %63 to i64
  %.sroa.0.0.extract.trunc.i36 = trunc i64 %64 to i32
  %65 = tail call ptr @lv_obj_get_style_prop(ptr noundef nonnull %0, i32 noundef 196608, i8 noundef zeroext 16) #7
  %66 = ptrtoint ptr %65 to i64
  %.sroa.0.0.extract.trunc.i37 = trunc i64 %66 to i32
  %67 = tail call ptr @lv_obj_get_style_prop(ptr noundef nonnull %0, i32 noundef 196608, i8 noundef zeroext 17) #7
  %68 = ptrtoint ptr %67 to i64
  %.sroa.0.0.extract.trunc.i38 = trunc i64 %68 to i32
  %69 = add nsw i32 %57, %.0.val
  %70 = add i32 %47, %.sroa.0.0.extract.trunc.i35
  %71 = sub i32 %69, %70
  store i32 %71, ptr %2, align 4, !tbaa !65
  %72 = add i32 %69, %47
  %73 = add i32 %72, %.sroa.0.0.extract.trunc.i36
  %74 = getelementptr inbounds nuw i8, ptr %2, i64 8
  store i32 %73, ptr %74, align 4, !tbaa !66
  %75 = add nsw i32 %60, %.4.val
  %76 = add i32 %47, %.sroa.0.0.extract.trunc.i37
  %77 = sub i32 %75, %76
  %78 = getelementptr inbounds nuw i8, ptr %2, i64 4
  store i32 %77, ptr %78, align 4, !tbaa !67
  %79 = add i32 %75, %47
  %80 = add i32 %79, %.sroa.0.0.extract.trunc.i38
  %81 = getelementptr inbounds nuw i8, ptr %2, i64 12
  store i32 %80, ptr %81, align 4, !tbaa !68
  ret void
}